target datalayout = "e-m:e-p270:32:32-p271:32:32-p272:64:64-i64:64-i128:128-f80:128-n8:16:32:64-S128"
target triple = "x86_64-pc-linux-gnu"

%struct.linenoiseState = type { i32, i32, ptr, i64, ptr, ptr, i64, i64, i64, i64, i64, i64, i32 }

@maskmode = internal global i32 0, align 4
@mlmode = internal global i32 0, align 4
@hintsCallback = internal global ptr null, align 8

; Function Attrs: nounwind uwtable
define dso_local i32 @linenoiseEditInsert(ptr noundef %0, i8 noundef signext %1) #0 {
  %3 = alloca i32, align 4
  %4 = alloca ptr, align 8
  %5 = alloca i8, align 1
  %6 = alloca i8, align 1
  %7 = alloca i32, align 4
  store ptr %0, ptr %4, align 8, !tbaa !23
  store i8 %1, ptr %5, align 1, !tbaa !29
  %8 = load ptr, ptr %4, align 8, !tbaa !23
  %9 = getelementptr inbounds nuw %struct.linenoiseState, ptr %8, i32 0, i32 9
  %10 = load i64, ptr %9, align 8, !tbaa !25
  %11 = load ptr, ptr %4, align 8, !tbaa !23
  %12 = getelementptr inbounds nuw %struct.linenoiseState, ptr %11, i32 0, i32 3
  %13 = load i64, ptr %12, align 8, !tbaa !33
  %14 = icmp ult i64 %10, %13
  br i1 %14, label %15, label %135

15:                                               ; preds = %2
  %16 = load ptr, ptr %4, align 8, !tbaa !23
  %17 = getelementptr inbounds nuw %struct.linenoiseState, ptr %16, i32 0, i32 9
  %18 = load i64, ptr %17, align 8, !tbaa !25
  %19 = load ptr, ptr %4, align 8, !tbaa !23
  %20 = getelementptr inbounds nuw %struct.linenoiseState, ptr %19, i32 0, i32 7
  %21 = load i64, ptr %20, align 8, !tbaa !34
  %22 = icmp eq i64 %18, %21
  br i1 %22, label %23, label %87

23:                                               ; preds = %15
  %24 = load i8, ptr %5, align 1, !tbaa !29
  %25 = load ptr, ptr %4, align 8, !tbaa !23
  %26 = getelementptr inbounds nuw %struct.linenoiseState, ptr %25, i32 0, i32 2
  %27 = load ptr, ptr %26, align 8, !tbaa !28
  %28 = load ptr, ptr %4, align 8, !tbaa !23
  %29 = getelementptr inbounds nuw %struct.linenoiseState, ptr %28, i32 0, i32 7
  %30 = load i64, ptr %29, align 8, !tbaa !34
  %31 = getelementptr inbounds nuw i8, ptr %27, i64 %30
  store i8 %24, ptr %31, align 1, !tbaa !29
  %32 = load ptr, ptr %4, align 8, !tbaa !23
  %33 = getelementptr inbounds nuw %struct.linenoiseState, ptr %32, i32 0, i32 7
  %34 = load i64, ptr %33, align 8, !tbaa !34
  %35 = add i64 %34, 1
  store i64 %35, ptr %33, align 8, !tbaa !34
  %36 = load ptr, ptr %4, align 8, !tbaa !23
  %37 = getelementptr inbounds nuw %struct.linenoiseState, ptr %36, i32 0, i32 9
  %38 = load i64, ptr %37, align 8, !tbaa !25
  %39 = add i64 %38, 1
  store i64 %39, ptr %37, align 8, !tbaa !25
  %40 = load ptr, ptr %4, align 8, !tbaa !23
  %41 = getelementptr inbounds nuw %struct.linenoiseState, ptr %40, i32 0, i32 2
  %42 = load ptr, ptr %41, align 8, !tbaa !28
  %43 = load ptr, ptr %4, align 8, !tbaa !23
  %44 = getelementptr inbounds nuw %struct.linenoiseState, ptr %43, i32 0, i32 9
  %45 = load i64, ptr %44, align 8, !tbaa !25
  %46 = getelementptr inbounds nuw i8, ptr %42, i64 %45
  store i8 0, ptr %46, align 1, !tbaa !29
  %47 = load i32, ptr @mlmode, align 4, !tbaa !4
  %48 = icmp ne i32 %47, 0
  br i1 %48, label %84, label %49

49:                                               ; preds = %23
  %50 = load ptr, ptr %4, align 8, !tbaa !23
  %51 = getelementptr inbounds nuw %struct.linenoiseState, ptr %50, i32 0, i32 6
  %52 = load i64, ptr %51, align 8, !tbaa !35
  %53 = load ptr, ptr %4, align 8, !tbaa !23
  %54 = getelementptr inbounds nuw %struct.linenoiseState, ptr %53, i32 0, i32 9
  %55 = load i64, ptr %54, align 8, !tbaa !25
  %56 = add i64 %52, %55
  %57 = load ptr, ptr %4, align 8, !tbaa !23
  %58 = getelementptr inbounds nuw %struct.linenoiseState, ptr %57, i32 0, i32 10
  %59 = load i64, ptr %58, align 8, !tbaa !27
  %60 = icmp ult i64 %56, %59
  br i1 %60, label %61, label %84

61:                                               ; preds = %49
  %62 = load ptr, ptr @hintsCallback, align 8, !tbaa !8
  %63 = icmp ne ptr %62, null
  br i1 %63, label %84, label %64

64:                                               ; preds = %61
  call void @llvm.lifetime.start.p0(i64 1, ptr %6) #12
  %65 = load i32, ptr @maskmode, align 4, !tbaa !4
  %66 = icmp eq i32 %65, 1
  br i1 %66, label %67, label %68

67:                                               ; preds = %64
  br label %71

68:                                               ; preds = %64
  %69 = load i8, ptr %5, align 1, !tbaa !29
  %70 = sext i8 %69 to i32
  br label %71

71:                                               ; preds = %68, %67
  %72 = phi i32 [ 42, %67 ], [ %70, %68 ]
  %73 = trunc i32 %72 to i8
  store i8 %73, ptr %6, align 1, !tbaa !29
  %74 = load ptr, ptr %4, align 8, !tbaa !23
  %75 = getelementptr inbounds nuw %struct.linenoiseState, ptr %74, i32 0, i32 1
  %76 = load i32, ptr %75, align 4, !tbaa !36
  %77 = call i64 @write(i32 noundef %76, ptr noundef %6, i64 noundef 1)
  %78 = icmp eq i64 %77, -1
  br i1 %78, label %79, label %80

79:                                               ; preds = %71
  store i32 -1, ptr %3, align 4
  store i32 1, ptr %7, align 4
  br label %81

80:                                               ; preds = %71
  store i32 0, ptr %7, align 4
  br label %81

81:                                               ; preds = %80, %79
  call void @llvm.lifetime.end.p0(i64 1, ptr %6) #12
  %82 = load i32, ptr %7, align 4
  switch i32 %82, label %138 [
    i32 0, label %83
    i32 1, label %136
  ]

83:                                               ; preds = %81
  br label %86

84:                                               ; preds = %61, %49, %23
  %85 = load ptr, ptr %4, align 8, !tbaa !23
  call void @refreshLine(ptr noundef %85)
  br label %86

86:                                               ; preds = %84, %83
  br label %134

87:                                               ; preds = %15
  %88 = load ptr, ptr %4, align 8, !tbaa !23
  %89 = getelementptr inbounds nuw %struct.linenoiseState, ptr %88, i32 0, i32 2
  %90 = load ptr, ptr %89, align 8, !tbaa !28
  %91 = load ptr, ptr %4, align 8, !tbaa !23
  %92 = getelementptr inbounds nuw %struct.linenoiseState, ptr %91, i32 0, i32 7
  %93 = load i64, ptr %92, align 8, !tbaa !34
  %94 = getelementptr inbounds nuw i8, ptr %90, i64 %93
  %95 = getelementptr inbounds i8, ptr %94, i64 1
  %96 = load ptr, ptr %4, align 8, !tbaa !23
  %97 = getelementptr inbounds nuw %struct.linenoiseState, ptr %96, i32 0, i32 2
  %98 = load ptr, ptr %97, align 8, !tbaa !28
  %99 = load ptr, ptr %4, align 8, !tbaa !23
  %100 = getelementptr inbounds nuw %struct.linenoiseState, ptr %99, i32 0, i32 7
  %101 = load i64, ptr %100, align 8, !tbaa !34
  %102 = getelementptr inbounds nuw i8, ptr %98, i64 %101
  %103 = load ptr, ptr %4, align 8, !tbaa !23
  %104 = getelementptr inbounds nuw %struct.linenoiseState, ptr %103, i32 0, i32 9
  %105 = load i64, ptr %104, align 8, !tbaa !25
  %106 = load ptr, ptr %4, align 8, !tbaa !23
  %107 = getelementptr inbounds nuw %struct.linenoiseState, ptr %106, i32 0, i32 7
  %108 = load i64, ptr %107, align 8, !tbaa !34
  %109 = sub i64 %105, %108
  call void @llvm.memmove.p0.p0.i64(ptr align 1 %95, ptr align 1 %102, i64 %109, i1 false)
  %110 = load i8, ptr %5, align 1, !tbaa !29
  %111 = load ptr, ptr %4, align 8, !tbaa !23
  %112 = getelementptr inbounds nuw %struct.linenoiseState, ptr %111, i32 0, i32 2
  %113 = load ptr, ptr %112, align 8, !tbaa !28
  %114 = load ptr, ptr %4, align 8, !tbaa !23
  %115 = getelementptr inbounds nuw %struct.linenoiseState, ptr %114, i32 0, i32 7
  %116 = load i64, ptr %115, align 8, !tbaa !34
  %117 = getelementptr inbounds nuw i8, ptr %113, i64 %116
  store i8 %110, ptr %117, align 1, !tbaa !29
  %118 = load ptr, ptr %4, align 8, !tbaa !23
  %119 = getelementptr inbounds nuw %struct.linenoiseState, ptr %118, i32 0, i32 9
  %120 = load i64, ptr %119, align 8, !tbaa !25
  %121 = add i64 %120, 1
  store i64 %121, ptr %119, align 8, !tbaa !25
  %122 = load ptr, ptr %4, align 8, !tbaa !23
  %123 = getelementptr inbounds nuw %struct.linenoiseState, ptr %122, i32 0, i32 7
  %124 = load i64, ptr %123, align 8, !tbaa !34
  %125 = add i64 %124, 1
  store i64 %125, ptr %123, align 8, !tbaa !34
  %126 = load ptr, ptr %4, align 8, !tbaa !23
  %127 = getelementptr inbounds nuw %struct.linenoiseState, ptr %126, i32 0, i32 2
  %128 = load ptr, ptr %127, align 8, !tbaa !28
  %129 = load ptr, ptr %4, align 8, !tbaa !23
  %130 = getelementptr inbounds nuw %struct.linenoiseState, ptr %129, i32 0, i32 9
  %131 = load i64, ptr %130, align 8, !tbaa !25
  %132 = getelementptr inbounds nuw i8, ptr %128, i64 %131
  store i8 0, ptr %132, align 1, !tbaa !29
  %133 = load ptr, ptr %4, align 8, !tbaa !23
  call void @refreshLine(ptr noundef %133)
  br label %134

134:                                              ; preds = %87, %86
  br label %135

135:                                              ; preds = %134, %2
  store i32 0, ptr %3, align 4
  br label %136

136:                                              ; preds = %135, %81
  %137 = load i32, ptr %3, align 4
  ret i32 %137

138:                                              ; preds = %81
  unreachable
}