; Function Attrs: nounwind uwtable
define dso_local range(i32 -1, 1) i32 @linenoiseEditInsert(ptr noundef captures(none) %0, i8 noundef signext %1) local_unnamed_addr #10 {
  %3 = alloca i8, align 1
  %4 = getelementptr inbounds nuw i8, ptr %0, i64 64
  %5 = load i64, ptr %4, align 8, !tbaa !17
  %6 = getelementptr inbounds nuw i8, ptr %0, i64 16
  %7 = load i64, ptr %6, align 8, !tbaa !25
  %8 = icmp ult i64 %5, %7
  br i1 %8, label %9, label %52

9:                                                ; preds = %2
  %10 = getelementptr inbounds nuw i8, ptr %0, i64 48
  %11 = load i64, ptr %10, align 8, !tbaa !26
  %12 = icmp eq i64 %5, %11
  %13 = getelementptr inbounds nuw i8, ptr %0, i64 8
  %14 = load ptr, ptr %13, align 8, !tbaa !20
  br i1 %12, label %15, label %39

15:                                               ; preds = %9
  %16 = getelementptr inbounds nuw i8, ptr %14, i64 %5
  store i8 %1, ptr %16, align 1, !tbaa !21
  %17 = load i64, ptr %10, align 8, !tbaa !26
  %18 = add i64 %17, 1
  store i64 %18, ptr %10, align 8, !tbaa !26
  %19 = load i64, ptr %4, align 8, !tbaa !17
  %20 = add i64 %19, 1
  store i64 %20, ptr %4, align 8, !tbaa !17
  %21 = load ptr, ptr %13, align 8, !tbaa !20
  %22 = getelementptr inbounds nuw i8, ptr %21, i64 %20
  store i8 0, ptr %22, align 1, !tbaa !21
  %23 = load i32, ptr @mlmode, align 4, !tbaa !4
  %.not = icmp eq i32 %23, 0
  br i1 %.not, label %24, label %.sink.split

24:                                               ; preds = %15
  %25 = getelementptr inbounds nuw i8, ptr %0, i64 40
  %26 = load i64, ptr %25, align 8, !tbaa !27
  %27 = load i64, ptr %4, align 8, !tbaa !17
  %28 = add i64 %27, %26
  %29 = getelementptr inbounds nuw i8, ptr %0, i64 72
  %30 = load i64, ptr %29, align 8, !tbaa !19
  %31 = icmp uge i64 %28, %30
  %32 = load ptr, ptr @hintsCallback, align 8
  %33 = icmp ne ptr %32, null
  %or.cond = select i1 %31, i1 true, i1 %33
  br i1 %or.cond, label %.sink.split, label %34

34:                                               ; preds = %24
  call void @llvm.lifetime.start.p0(i64 1, ptr nonnull %3) #24
  %.b = load i1, ptr @maskmode, align 4
  %35 = select i1 %.b, i8 42, i8 %1
  store i8 %35, ptr %3, align 1, !tbaa !21
  %36 = getelementptr inbounds nuw i8, ptr %0, i64 4
  %37 = load i32, ptr %36, align 4, !tbaa !28
  %38 = call i64 @write(i32 noundef %37, ptr noundef nonnull %3, i64 noundef 1) #24
  %.not37 = icmp eq i64 %38, -1
  call void @llvm.lifetime.end.p0(i64 1, ptr nonnull %3) #24
  br i1 %.not37, label %53, label %52

39:                                               ; preds = %9
  %40 = getelementptr inbounds nuw i8, ptr %14, i64 %11
  %41 = getelementptr inbounds nuw i8, ptr %40, i64 1
  %42 = sub i64 %5, %11
  tail call void @llvm.memmove.p0.p0.i64(ptr nonnull align 1 %41, ptr align 1 %40, i64 %42, i1 false)
  %43 = load ptr, ptr %13, align 8, !tbaa !20
  %44 = load i64, ptr %10, align 8, !tbaa !26
  %45 = getelementptr inbounds nuw i8, ptr %43, i64 %44
  store i8 %1, ptr %45, align 1, !tbaa !21
  %46 = load i64, ptr %4, align 8, !tbaa !17
  %47 = add i64 %46, 1
  store i64 %47, ptr %4, align 8, !tbaa !17
  %48 = load i64, ptr %10, align 8, !tbaa !26
  %49 = add i64 %48, 1
  store i64 %49, ptr %10, align 8, !tbaa !26
  %50 = load ptr, ptr %13, align 8, !tbaa !20
  %51 = getelementptr inbounds nuw i8, ptr %50, i64 %47
  store i8 0, ptr %51, align 1, !tbaa !21
  br label %.sink.split

.sink.split:                                      ; preds = %15, %24, %39
  tail call fastcc void @refreshLine(ptr noundef nonnull %0)
  br label %52

52:                                               ; preds = %.sink.split, %34, %2
  br label %53

53:                                               ; preds = %34, %52
  %.1 = phi i32 [ 0, %52 ], [ -1, %34 ]
  ret i32 %.1
}